; Function Attrs: mustprogress uwtable
define void @_ZN7rocksdb14ThreadLocalPtr4FoldESt8functionIFvPvS2_EES2_(ptr noundef nonnull readonly align 4 captures(none) dereferenceable(4) %0, ptr noundef %1, ptr noundef %2) local_unnamed_addr #0 align 2 personality ptr @__gxx_personality_v0 {
  %4 = alloca %"class.std::function", align 8
  %5 = load atomic i8, ptr @_ZGVZN7rocksdb14ThreadLocalPtr8InstanceEvE4inst acquire, align 8
  %6 = icmp eq i8 %5, 0
  br i1 %6, label %7, label %_ZN7rocksdb14ThreadLocalPtr8InstanceEv.exit, !prof !4

7:                                                ; preds = %3
  %8 = tail call i32 @__cxa_guard_acquire(ptr nonnull @_ZGVZN7rocksdb14ThreadLocalPtr8InstanceEvE4inst) #19
  %.not.i = icmp eq i32 %8, 0
  br i1 %.not.i, label %_ZN7rocksdb14ThreadLocalPtr8InstanceEv.exit, label %9

9:                                                ; preds = %7
  %10 = invoke noalias noundef nonnull dereferenceable(232) ptr @_Znwm(i64 noundef 232) #20
          to label %11 unwind label %13

11:                                               ; preds = %9
  invoke void @_ZN7rocksdb14ThreadLocalPtr10StaticMetaC1Ev(ptr noundef nonnull align 8 dereferenceable(228) %10)
          to label %12 unwind label %15

12:                                               ; preds = %11
  store ptr %10, ptr @_ZZN7rocksdb14ThreadLocalPtr8InstanceEvE4inst, align 8, !tbaa !5
  tail call void @__cxa_guard_release(ptr nonnull @_ZGVZN7rocksdb14ThreadLocalPtr8InstanceEvE4inst) #19
  br label %_ZN7rocksdb14ThreadLocalPtr8InstanceEv.exit

13:                                               ; preds = %9
  %14 = landingpad { ptr, i32 }
          cleanup
  br label %17

15:                                               ; preds = %11
  %16 = landingpad { ptr, i32 }
          cleanup
  tail call void @_ZdlPvm(ptr noundef nonnull %10, i64 noundef 232) #21
  br label %17

common.resume:                                    ; preds = %48, %45, %30, %33, %17
  %common.resume.op = phi { ptr, i32 } [ %.pn.i, %17 ], [ %31, %33 ], [ %31, %30 ], [ %46, %45 ], [ %46, %48 ]
  resume { ptr, i32 } %common.resume.op

17:                                               ; preds = %15, %13
  %.pn.i = phi { ptr, i32 } [ %16, %15 ], [ %14, %13 ]
  tail call void @__cxa_guard_abort(ptr nonnull @_ZGVZN7rocksdb14ThreadLocalPtr8InstanceEvE4inst) #19
  br label %common.resume

_ZN7rocksdb14ThreadLocalPtr8InstanceEv.exit:      ; preds = %3, %7, %12
  %18 = load ptr, ptr @_ZZN7rocksdb14ThreadLocalPtr8InstanceEvE4inst, align 8, !tbaa !5
  %19 = load i32, ptr %0, align 4, !tbaa !94
  %20 = getelementptr inbounds nuw i8, ptr %4, i64 16
  %21 = getelementptr inbounds nuw i8, ptr %4, i64 24
  %22 = getelementptr inbounds nuw i8, ptr %1, i64 16
  call void @llvm.memset.p0.i64(ptr noundef nonnull align 8 dereferenceable(32) %4, i8 0, i64 32, i1 false)
  %23 = load ptr, ptr %22, align 8, !tbaa !87
  %.not.i.i.not.i = icmp eq ptr %23, null
  br i1 %.not.i.i.not.i, label %_ZNSt8functionIFvPvS0_EEC2ERKS2_.exit, label %24

24:                                               ; preds = %_ZN7rocksdb14ThreadLocalPtr8InstanceEv.exit
  %25 = invoke noundef zeroext i1 %23(ptr noundef nonnull align 8 dereferenceable(32) %4, ptr noundef nonnull align 8 dereferenceable(32) %1, i32 noundef 2)
          to label %26 unwind label %30

26:                                               ; preds = %24
  %27 = getelementptr inbounds nuw i8, ptr %1, i64 24
  %28 = load ptr, ptr %27, align 8, !tbaa !89
  store ptr %28, ptr %21, align 8, !tbaa !89
  %29 = load ptr, ptr %22, align 8, !tbaa !87
  store ptr %29, ptr %20, align 8, !tbaa !87
  br label %_ZNSt8functionIFvPvS0_EEC2ERKS2_.exit

30:                                               ; preds = %24
  %31 = landingpad { ptr, i32 }
          cleanup
  %32 = load ptr, ptr %20, align 8, !tbaa !87
  %.not.i.i = icmp eq ptr %32, null
  br i1 %.not.i.i, label %common.resume, label %33

33:                                               ; preds = %30
  %34 = invoke noundef zeroext i1 %32(ptr noundef nonnull align 8 dereferenceable(32) %4, ptr noundef nonnull align 8 dereferenceable(32) %4, i32 noundef 3)
          to label %common.resume unwind label %35

35:                                               ; preds = %33
  %36 = landingpad { ptr, i32 }
          catch ptr null
  %37 = extractvalue { ptr, i32 } %36, 0
  call void @__clang_call_terminate(ptr %37) #22
  unreachable

_ZNSt8functionIFvPvS0_EEC2ERKS2_.exit:            ; preds = %_ZN7rocksdb14ThreadLocalPtr8InstanceEv.exit, %26
  invoke void @_ZN7rocksdb14ThreadLocalPtr10StaticMeta4FoldEjSt8functionIFvPvS3_EES3_(ptr noundef nonnull align 8 dereferenceable(228) %18, i32 noundef %19, ptr noundef nonnull %4, ptr noundef %2)
          to label %38 unwind label %45

38:                                               ; preds = %_ZNSt8functionIFvPvS0_EEC2ERKS2_.exit
  %39 = load ptr, ptr %20, align 8, !tbaa !87
  %.not.i3 = icmp eq ptr %39, null
  br i1 %.not.i3, label %_ZNSt14_Function_baseD2Ev.exit, label %40

40:                                               ; preds = %38
  %41 = invoke noundef zeroext i1 %39(ptr noundef nonnull align 8 dereferenceable(32) %4, ptr noundef nonnull align 8 dereferenceable(32) %4, i32 noundef 3)
          to label %_ZNSt14_Function_baseD2Ev.exit unwind label %42

42:                                               ; preds = %40
  %43 = landingpad { ptr, i32 }
          catch ptr null
  %44 = extractvalue { ptr, i32 } %43, 0
  call void @__clang_call_terminate(ptr %44) #22
  unreachable

_ZNSt14_Function_baseD2Ev.exit:                   ; preds = %38, %40
  ret void

45:                                               ; preds = %_ZNSt8functionIFvPvS0_EEC2ERKS2_.exit
  %46 = landingpad { ptr, i32 }
          cleanup
  %47 = load ptr, ptr %20, align 8, !tbaa !87
  %.not.i4 = icmp eq ptr %47, null
  br i1 %.not.i4, label %common.resume, label %48

48:                                               ; preds = %45
  %49 = invoke noundef zeroext i1 %47(ptr noundef nonnull align 8 dereferenceable(32) %4, ptr noundef nonnull align 8 dereferenceable(32) %4, i32 noundef 3)
          to label %common.resume unwind label %50

50:                                               ; preds = %48
  %51 = landingpad { ptr, i32 }
          catch ptr null
  %52 = extractvalue { ptr, i32 } %51, 0
  call void @__clang_call_terminate(ptr %52) #22
  unreachable
}